; Function Attrs: mustprogress nounwind uwtable
define hidden void @_ZN21ClassLoaderDataShared9serializeEP16SerializeClosure(ptr noundef %0) local_unnamed_addr #0 align 2 {
  %2 = load ptr, ptr %0, align 8
  %3 = getelementptr inbounds i8, ptr %2, i64 8
  %4 = load ptr, ptr %3, align 8
  tail call void %4(ptr noundef nonnull align 8 dereferenceable(8) %0, ptr noundef nonnull @_ZL26_archived_boot_loader_data) #4
  %5 = load ptr, ptr %0, align 8
  %6 = getelementptr inbounds i8, ptr %5, i64 8
  %7 = load ptr, ptr %6, align 8
  tail call void %7(ptr noundef nonnull align 8 dereferenceable(8) %0, ptr noundef nonnull getelementptr inbounds (i8, ptr @_ZL26_archived_boot_loader_data, i64 8)) #4
  %8 = load ptr, ptr %0, align 8
  %9 = getelementptr inbounds i8, ptr %8, i64 8
  %10 = load ptr, ptr %9, align 8
  tail call void %10(ptr noundef nonnull align 8 dereferenceable(8) %0, ptr noundef nonnull @_ZL30_archived_platform_loader_data) #4
  %11 = load ptr, ptr %0, align 8
  %12 = getelementptr inbounds i8, ptr %11, i64 8
  %13 = load ptr, ptr %12, align 8
  tail call void %13(ptr noundef nonnull align 8 dereferenceable(8) %0, ptr noundef nonnull getelementptr inbounds (i8, ptr @_ZL30_archived_platform_loader_data, i64 8)) #4
  %14 = load ptr, ptr %0, align 8
  %15 = getelementptr inbounds i8, ptr %14, i64 8
  %16 = load ptr, ptr %15, align 8
  tail call void %16(ptr noundef nonnull align 8 dereferenceable(8) %0, ptr noundef nonnull @_ZL28_archived_system_loader_data) #4
  %17 = load ptr, ptr %0, align 8
  %18 = getelementptr inbounds i8, ptr %17, i64 8
  %19 = load ptr, ptr %18, align 8
  tail call void %19(ptr noundef nonnull align 8 dereferenceable(8) %0, ptr noundef nonnull getelementptr inbounds (i8, ptr @_ZL28_archived_system_loader_data, i64 8)) #4
  %20 = load ptr, ptr %0, align 8
  %21 = getelementptr inbounds i8, ptr %20, i64 8
  %22 = load ptr, ptr %21, align 8
  tail call void %22(ptr noundef nonnull align 8 dereferenceable(8) %0, ptr noundef nonnull @_ZL30_archived_javabase_moduleEntry) #4
  %23 = load ptr, ptr %0, align 8
  %24 = load ptr, ptr %23, align 8
  %25 = tail call noundef zeroext i1 %24(ptr noundef nonnull align 8 dereferenceable(8) %0) #4
  br i1 %25, label %26, label %44

26:                                               ; preds = %1
  %27 = tail call noundef zeroext i1 @_ZN9CDSConfig26is_using_full_module_graphEv() #4
  br i1 %27, label %28, label %44

28:                                               ; preds = %26
  %29 = load ptr, ptr @_ZN15ClassLoaderData27_the_null_class_loader_dataE, align 8
  %30 = load ptr, ptr getelementptr inbounds (i8, ptr @_ZL26_archived_boot_loader_data, i64 8), align 8
  %.not.i = icmp eq ptr %30, null
  br i1 %.not.i, label %_ZN23ArchivedClassLoaderData7restoreEP15ClassLoaderDatabb.exit, label %31

31:                                               ; preds = %28
  %32 = tail call noundef ptr @_ZN15ClassLoaderData7modulesEv(ptr noundef nonnull align 8 dereferenceable(160) %29) #4
  %33 = getelementptr inbounds i8, ptr %29, i64 64
  %34 = load volatile ptr, ptr %33, align 8
  %35 = load ptr, ptr @Module_lock, align 8
  %.not.i.i.i = icmp eq ptr %35, null
  br i1 %.not.i.i.i, label %_ZN23ArchivedClassLoaderData7restoreEP15ClassLoaderDatabb.exit.critedge, label %_ZN11MutexLockerC2EP5MutexNS0_18SafepointCheckFlagE.exit.i

_ZN11MutexLockerC2EP5MutexNS0_18SafepointCheckFlagE.exit.i: ; preds = %31
  tail call void @_ZN5Mutex4lockEv(ptr noundef nonnull align 8 dereferenceable(104) %35) #4
  %36 = load ptr, ptr getelementptr inbounds (i8, ptr @_ZL26_archived_boot_loader_data, i64 8), align 8
  tail call void @_ZN16ModuleEntryTable21load_archived_entriesEP15ClassLoaderDataP5ArrayIP11ModuleEntryE(ptr noundef nonnull align 8 dereferenceable(880) %32, ptr noundef nonnull %29, ptr noundef %36) #4
  %37 = load ptr, ptr @_ZL26_archived_boot_loader_data, align 8
  tail call void @_ZN17PackageEntryTable21load_archived_entriesEP5ArrayIP12PackageEntryE(ptr noundef nonnull align 8 dereferenceable(880) %34, ptr noundef %37) #4
  tail call void @_ZN5Mutex6unlockEv(ptr noundef nonnull align 8 dereferenceable(104) %35) #4
  br label %_ZN23ArchivedClassLoaderData7restoreEP15ClassLoaderDatabb.exit

_ZN23ArchivedClassLoaderData7restoreEP15ClassLoaderDatabb.exit.critedge: ; preds = %31
  %38 = load ptr, ptr getelementptr inbounds (i8, ptr @_ZL26_archived_boot_loader_data, i64 8), align 8
  tail call void @_ZN16ModuleEntryTable21load_archived_entriesEP15ClassLoaderDataP5ArrayIP11ModuleEntryE(ptr noundef nonnull align 8 dereferenceable(880) %32, ptr noundef nonnull %29, ptr noundef %38) #4
  %39 = load ptr, ptr @_ZL26_archived_boot_loader_data, align 8
  tail call void @_ZN17PackageEntryTable21load_archived_entriesEP5ArrayIP12PackageEntryE(ptr noundef nonnull align 8 dereferenceable(880) %34, ptr noundef %39) #4
  br label %_ZN23ArchivedClassLoaderData7restoreEP15ClassLoaderDatabb.exit

_ZN23ArchivedClassLoaderData7restoreEP15ClassLoaderDatabb.exit: ; preds = %_ZN23ArchivedClassLoaderData7restoreEP15ClassLoaderDatabb.exit.critedge, %28, %_ZN11MutexLockerC2EP5MutexNS0_18SafepointCheckFlagE.exit.i
  %40 = load ptr, ptr @_ZL30_archived_javabase_moduleEntry, align 8
  store ptr %40, ptr @_ZN16ModuleEntryTable16_javabase_moduleE, align 8
  %41 = load volatile ptr, ptr getelementptr inbounds (i8, ptr @_ZN16LogTagSetMappingILN6LogTag4typeE14ELS1_0ELS1_0ELS1_0ELS1_0ELS1_0EE7_tagsetE, i64 64), align 8
  %.not = icmp eq ptr %41, null
  br i1 %.not, label %44, label %42

42:                                               ; preds = %_ZN23ArchivedClassLoaderData7restoreEP15ClassLoaderDatabb.exit
  %43 = ptrtoint ptr %40 to i64
  tail call void (ptr, ...) @_ZN7LogImplILN6LogTag4typeE14ELS1_0ELS1_0ELS1_0ELS1_0ELS1_0EE5writeILN8LogLevel4typeE3EEEvPKcz(ptr noundef nonnull @.str, i64 noundef %43)
  br label %44

44:                                               ; preds = %42, %_ZN23ArchivedClassLoaderData7restoreEP15ClassLoaderDatabb.exit, %26, %1
  ret void
}